target datalayout = "e-m:e-p270:32:32-p271:32:32-p272:64:64-i64:64-i128:128-f80:128-n8:16:32:64-S128"
target triple = "x86_64-pc-linux-gnu"

%"class.llvm::APInt" = type <{ %union.anon.0, i32, [4 x i8] }>
%union.anon.0 = type { i64 }
%"struct.llvm::SwitchCG::CaseCluster" = type <{ i32, [4 x i8], ptr, ptr, %union.anon, %"class.llvm::BranchProbability", [4 x i8] }>
%union.anon = type { ptr }
%"class.llvm::BranchProbability" = type { i32 }
%"struct.std::_Vector_base" = type { %"struct.std::_Vector_base<llvm::SwitchCG::CaseCluster, std::allocator<llvm::SwitchCG::CaseCluster>>::_Vector_impl" }
%"struct.std::_Vector_base<llvm::SwitchCG::CaseCluster, std::allocator<llvm::SwitchCG::CaseCluster>>::_Vector_impl" = type { %"struct.std::_Vector_base<llvm::SwitchCG::CaseCluster, std::allocator<llvm::SwitchCG::CaseCluster>>::_Vector_impl_data" }
%"struct.std::_Vector_base<llvm::SwitchCG::CaseCluster, std::allocator<llvm::SwitchCG::CaseCluster>>::_Vector_impl_data" = type { ptr, ptr, ptr }
%"class.llvm::ConstantInt" = type { %"class.llvm::ConstantData", %"class.llvm::APInt" }
%"class.llvm::ConstantData" = type { %"class.llvm::Constant" }
%"class.llvm::Constant" = type { %"class.llvm::User" }
%"class.llvm::User" = type { %"class.llvm::Value" }
%"class.llvm::Value" = type { i8, i8, i16, i32, ptr, ptr }

; Function Attrs: mustprogress nounwind uwtable
define linkonce_odr hidden noundef i32 @_ZN4llvm6detail19LeadingZerosCounterImLm8EE5countEm(i64 noundef %0) #0 comdat align 2 {
  %2 = alloca i32, align 4
  %3 = alloca i64, align 8
  store i64 %0, ptr %3, align 8
  %4 = load i64, ptr %3, align 8
  %5 = icmp eq i64 %4, 0
  br i1 %5, label %6, label %7

6:                                                ; preds = %1
  store i32 64, ptr %2, align 4
  br label %11

7:                                                ; preds = %1
  %8 = load i64, ptr %3, align 8
  %9 = call i64 @llvm.ctlz.i64(i64 %8, i1 true)
  %10 = trunc i64 %9 to i32
  store i32 %10, ptr %2, align 4
  br label %11

11:                                               ; preds = %7, %6
  %12 = load i32, ptr %2, align 4
  ret i32 %12
}

; Function Attrs: mustprogress nounwind uwtable
define linkonce_odr noundef i32 @_ZN4llvm11countl_zeroImEEiT_(i64 noundef %0) #0 comdat {
  %2 = alloca i64, align 8
  store i64 %0, ptr %2, align 8
  %3 = load i64, ptr %2, align 8
  %4 = call noundef i32 @_ZN4llvm6detail19LeadingZerosCounterImLm8EE5countEm(i64 noundef %3)
  ret i32 %4
}

; Function Attrs: mustprogress nounwind uwtable
define linkonce_odr hidden noundef i32 @_ZNK4llvm5APInt11countl_zeroEv(ptr noundef nonnull align 8 dereferenceable(12) %0) #0 comdat align 2 {
  %2 = alloca i32, align 4
  %3 = alloca ptr, align 8
  %4 = alloca i32, align 4
  store ptr %0, ptr %3, align 8
  %5 = load ptr, ptr %3, align 8
  %6 = call noundef zeroext i1 @_ZNK4llvm5APInt12isSingleWordEv(ptr noundef nonnull align 8 dereferenceable(12) %5)
  br i1 %6, label %7, label %16

7:                                                ; preds = %1
  %8 = getelementptr inbounds nuw %"class.llvm::APInt", ptr %5, i32 0, i32 1
  %9 = load i32, ptr %8, align 8
  %10 = sub i32 64, %9
  store i32 %10, ptr %4, align 4
  %11 = getelementptr inbounds nuw %"class.llvm::APInt", ptr %5, i32 0, i32 0
  %12 = load i64, ptr %11, align 8
  %13 = call noundef i32 @_ZN4llvm11countl_zeroImEEiT_(i64 noundef %12)
  %14 = load i32, ptr %4, align 4
  %15 = sub i32 %13, %14
  store i32 %15, ptr %2, align 4
  br label %18

16:                                               ; preds = %1
  %17 = call noundef i32 @_ZNK4llvm5APInt25countLeadingZerosSlowCaseEv(ptr noundef nonnull align 8 dereferenceable(12) %5) #12
  store i32 %17, ptr %2, align 4
  br label %18

18:                                               ; preds = %16, %7
  %19 = load i32, ptr %2, align 4
  ret i32 %19
}

; Function Attrs: mustprogress nounwind uwtable
define linkonce_odr hidden noundef i32 @_ZNK4llvm5APInt13getActiveBitsEv(ptr noundef nonnull align 8 dereferenceable(12) %0) #0 comdat align 2 {
  %2 = alloca ptr, align 8
  store ptr %0, ptr %2, align 8
  %3 = load ptr, ptr %2, align 8
  %4 = getelementptr inbounds nuw %"class.llvm::APInt", ptr %3, i32 0, i32 1
  %5 = load i32, ptr %4, align 8
  %6 = call noundef i32 @_ZNK4llvm5APInt11countl_zeroEv(ptr noundef nonnull align 8 dereferenceable(12) %3)
  %7 = sub i32 %5, %6
  ret i32 %7
}

; Function Attrs: mustprogress nounwind uwtable
define linkonce_odr hidden noundef zeroext i1 @_ZNK4llvm5APInt12needsCleanupEv(ptr noundef nonnull align 8 dereferenceable(12) %0) #0 comdat align 2 {
  %2 = alloca ptr, align 8
  store ptr %0, ptr %2, align 8
  %3 = load ptr, ptr %2, align 8
  %4 = call noundef zeroext i1 @_ZNK4llvm5APInt12isSingleWordEv(ptr noundef nonnull align 8 dereferenceable(12) %3)
  %5 = xor i1 %4, true
  ret i1 %5
}

; Function Attrs: mustprogress nounwind uwtable
define linkonce_odr hidden noundef i64 @_ZNK4llvm5APInt12getZExtValueEv(ptr noundef nonnull align 8 dereferenceable(12) %0) #0 comdat align 2 {
  %2 = alloca i64, align 8
  %3 = alloca ptr, align 8
  store ptr %0, ptr %3, align 8
  %4 = load ptr, ptr %3, align 8
  %5 = call noundef zeroext i1 @_ZNK4llvm5APInt12isSingleWordEv(ptr noundef nonnull align 8 dereferenceable(12) %4)
  br i1 %5, label %6, label %9

6:                                                ; preds = %1
  %7 = getelementptr inbounds nuw %"class.llvm::APInt", ptr %4, i32 0, i32 0
  %8 = load i64, ptr %7, align 8
  store i64 %8, ptr %2, align 8
  br label %14

9:                                                ; preds = %1
  %10 = getelementptr inbounds nuw %"class.llvm::APInt", ptr %4, i32 0, i32 0
  %11 = load ptr, ptr %10, align 8
  %12 = getelementptr inbounds i64, ptr %11, i64 0
  %13 = load i64, ptr %12, align 8
  store i64 %13, ptr %2, align 8
  br label %14

14:                                               ; preds = %9, %6
  %15 = load i64, ptr %2, align 8
  ret i64 %15
}

; Function Attrs: mustprogress nounwind uwtable
define linkonce_odr hidden noundef zeroext i1 @_ZNK4llvm5APInt3ugtEm(ptr noundef nonnull align 8 dereferenceable(12) %0, i64 noundef %1) #0 comdat align 2 {
  %3 = alloca ptr, align 8
  %4 = alloca i64, align 8
  store ptr %0, ptr %3, align 8
  store i64 %1, ptr %4, align 8
  %5 = load ptr, ptr %3, align 8
  %6 = call noundef zeroext i1 @_ZNK4llvm5APInt12isSingleWordEv(ptr noundef nonnull align 8 dereferenceable(12) %5)
  br i1 %6, label %10, label %7

7:                                                ; preds = %2
  %8 = call noundef i32 @_ZNK4llvm5APInt13getActiveBitsEv(ptr noundef nonnull align 8 dereferenceable(12) %5)
  %9 = icmp ugt i32 %8, 64
  br i1 %9, label %14, label %10

10:                                               ; preds = %7, %2
  %11 = call noundef i64 @_ZNK4llvm5APInt12getZExtValueEv(ptr noundef nonnull align 8 dereferenceable(12) %5)
  %12 = load i64, ptr %4, align 8
  %13 = icmp ugt i64 %11, %12
  br label %14

14:                                               ; preds = %10, %7
  %15 = phi i1 [ true, %7 ], [ %13, %10 ]
  ret i1 %15
}

; Function Attrs: mustprogress nounwind uwtable
define linkonce_odr hidden void @_ZN4llvm5APIntC2EOS0_(ptr noundef nonnull align 8 dereferenceable(12) %0, ptr noundef nonnull align 8 dereferenceable(12) %1) unnamed_addr #0 comdat align 2 {
  %3 = alloca ptr, align 8
  %4 = alloca ptr, align 8
  store ptr %0, ptr %3, align 8
  store ptr %1, ptr %4, align 8
  %5 = load ptr, ptr %3, align 8
  %6 = getelementptr inbounds nuw %"class.llvm::APInt", ptr %5, i32 0, i32 1
  %7 = load ptr, ptr %4, align 8
  %8 = getelementptr inbounds nuw %"class.llvm::APInt", ptr %7, i32 0, i32 1
  %9 = load i32, ptr %8, align 8
  store i32 %9, ptr %6, align 8
  %10 = getelementptr inbounds nuw %"class.llvm::APInt", ptr %5, i32 0, i32 0
  %11 = load ptr, ptr %4, align 8
  %12 = getelementptr inbounds nuw %"class.llvm::APInt", ptr %11, i32 0, i32 0
  call void @llvm.memcpy.p0.p0.i64(ptr align 8 %10, ptr align 8 %12, i64 8, i1 false)
  %13 = load ptr, ptr %4, align 8
  %14 = getelementptr inbounds nuw %"class.llvm::APInt", ptr %13, i32 0, i32 1
  store i32 0, ptr %14, align 8
  ret void
}

; Function Attrs: mustprogress nounwind uwtable
define linkonce_odr hidden noundef zeroext i1 @_ZNK4llvm5APInt12isSingleWordEv(ptr noundef nonnull align 8 dereferenceable(12) %0) #0 comdat align 2 {
  %2 = alloca ptr, align 8
  store ptr %0, ptr %2, align 8
  %3 = load ptr, ptr %2, align 8
  %4 = getelementptr inbounds nuw %"class.llvm::APInt", ptr %3, i32 0, i32 1
  %5 = load i32, ptr %4, align 8
  %6 = icmp ule i32 %5, 64
  ret i1 %6
}

; Function Attrs: mustprogress nounwind uwtable
define linkonce_odr hidden void @_ZN4llvm5APIntD2Ev(ptr noundef nonnull align 8 dereferenceable(12) %0) unnamed_addr #0 comdat align 2 {
  %2 = alloca ptr, align 8
  store ptr %0, ptr %2, align 8
  %3 = load ptr, ptr %2, align 8
  %4 = call noundef zeroext i1 @_ZNK4llvm5APInt12needsCleanupEv(ptr noundef nonnull align 8 dereferenceable(12) %3)
  br i1 %4, label %5, label %11

5:                                                ; preds = %1
  %6 = getelementptr inbounds nuw %"class.llvm::APInt", ptr %3, i32 0, i32 0
  %7 = load ptr, ptr %6, align 8
  %8 = icmp eq ptr %7, null
  br i1 %8, label %10, label %9

9:                                                ; preds = %5
  call void @_ZdaPv(ptr noundef %7) #11
  br label %10

10:                                               ; preds = %9, %5
  br label %11

11:                                               ; preds = %10, %1
  ret void
}

; Function Attrs: mustprogress nounwind uwtable
define linkonce_odr hidden noundef i64 @_ZNK4llvm5APInt15getLimitedValueEm(ptr noundef nonnull align 8 dereferenceable(12) %0, i64 noundef %1) #0 comdat align 2 {
  %3 = alloca ptr, align 8
  %4 = alloca i64, align 8
  store ptr %0, ptr %3, align 8
  store i64 %1, ptr %4, align 8
  %5 = load ptr, ptr %3, align 8
  %6 = load i64, ptr %4, align 8
  %7 = call noundef zeroext i1 @_ZNK4llvm5APInt3ugtEm(ptr noundef nonnull align 8 dereferenceable(12) %5, i64 noundef %6)
  br i1 %7, label %8, label %10

8:                                                ; preds = %2
  %9 = load i64, ptr %4, align 8
  br label %12

10:                                               ; preds = %2
  %11 = call noundef i64 @_ZNK4llvm5APInt12getZExtValueEv(ptr noundef nonnull align 8 dereferenceable(12) %5)
  br label %12

12:                                               ; preds = %10, %8
  %13 = phi i64 [ %9, %8 ], [ %11, %10 ]
  ret i64 %13
}

; Function Attrs: mustprogress nounwind uwtable
define linkonce_odr hidden void @_ZN4llvmmiENS_5APIntERKS0_(ptr dead_on_unwind noalias writable sret(%"class.llvm::APInt") align 8 %0, ptr noundef %1, ptr noundef nonnull align 8 dereferenceable(12) %2) #0 comdat {
  %4 = alloca ptr, align 8
  %5 = alloca ptr, align 8
  %6 = alloca ptr, align 8
  store ptr %0, ptr %4, align 8
  store ptr %1, ptr %5, align 8
  store ptr %2, ptr %6, align 8
  %7 = load ptr, ptr %6, align 8
  %8 = call noundef nonnull align 8 dereferenceable(12) ptr @_ZN4llvm5APIntmIERKS0_(ptr noundef nonnull align 8 dereferenceable(12) %1, ptr noundef nonnull align 8 dereferenceable(12) %7)
  call void @_ZN4llvm5APIntC2EOS0_(ptr noundef nonnull align 8 dereferenceable(12) %0, ptr noundef nonnull align 8 dereferenceable(12) %1)
  ret void
}

; Function Attrs: mustprogress nounwind uwtable
define linkonce_odr hidden void @_ZN4llvm5APIntC2ERKS0_(ptr noundef nonnull align 8 dereferenceable(12) %0, ptr noundef nonnull align 8 dereferenceable(12) %1) unnamed_addr #0 comdat align 2 {
  %3 = alloca ptr, align 8
  %4 = alloca ptr, align 8
  store ptr %0, ptr %3, align 8
  store ptr %1, ptr %4, align 8
  %5 = load ptr, ptr %3, align 8
  %6 = getelementptr inbounds nuw %"class.llvm::APInt", ptr %5, i32 0, i32 1
  %7 = load ptr, ptr %4, align 8
  %8 = getelementptr inbounds nuw %"class.llvm::APInt", ptr %7, i32 0, i32 1
  %9 = load i32, ptr %8, align 8
  store i32 %9, ptr %6, align 8
  %10 = call noundef zeroext i1 @_ZNK4llvm5APInt12isSingleWordEv(ptr noundef nonnull align 8 dereferenceable(12) %5)
  br i1 %10, label %11, label %16

11:                                               ; preds = %2
  %12 = load ptr, ptr %4, align 8
  %13 = getelementptr inbounds nuw %"class.llvm::APInt", ptr %12, i32 0, i32 0
  %14 = load i64, ptr %13, align 8
  %15 = getelementptr inbounds nuw %"class.llvm::APInt", ptr %5, i32 0, i32 0
  store i64 %14, ptr %15, align 8
  br label %18

16:                                               ; preds = %2
  %17 = load ptr, ptr %4, align 8
  call void @_ZN4llvm5APInt12initSlowCaseERKS0_(ptr noundef nonnull align 8 dereferenceable(12) %5, ptr noundef nonnull align 8 dereferenceable(12) %17)
  br label %18

18:                                               ; preds = %16, %11
  ret void
}

; Function Attrs: mustprogress nounwind uwtable
define linkonce_odr hidden noundef nonnull align 8 dereferenceable(12) ptr @_ZNK4llvm11ConstantInt8getValueEv(ptr noundef nonnull align 8 dereferenceable(40) %0) #0 comdat align 2 {
  %2 = alloca ptr, align 8
  store ptr %0, ptr %2, align 8
  %3 = load ptr, ptr %2, align 8
  %4 = getelementptr inbounds nuw %"class.llvm::ConstantInt", ptr %3, i32 0, i32 1
  ret ptr %4
}

; Function Attrs: mustprogress nounwind uwtable
define linkonce_odr hidden noundef nonnull align 8 dereferenceable(36) ptr @_ZNKSt6vectorIN4llvm8SwitchCG11CaseClusterESaIS2_EEixEm(ptr noundef nonnull align 8 dereferenceable(24) %0, i64 noundef %1) #0 comdat align 2 {
  %3 = alloca ptr, align 8
  %4 = alloca i64, align 8
  store ptr %0, ptr %3, align 8
  store i64 %1, ptr %4, align 8
  %5 = load ptr, ptr %3, align 8
  %6 = getelementptr inbounds nuw %"struct.std::_Vector_base", ptr %5, i32 0, i32 0
  %7 = getelementptr inbounds nuw %"struct.std::_Vector_base<llvm::SwitchCG::CaseCluster, std::allocator<llvm::SwitchCG::CaseCluster>>::_Vector_impl_data", ptr %6, i32 0, i32 0
  %8 = load ptr, ptr %7, align 8
  %9 = load i64, ptr %4, align 8
  %10 = getelementptr inbounds %"struct.llvm::SwitchCG::CaseCluster", ptr %8, i64 %9
  ret ptr %10
}

; Function Attrs: mustprogress nounwind uwtable
define dso_local noundef i64 @_ZN4llvm8SwitchCG17getJumpTableRangeERKSt6vectorINS0_11CaseClusterESaIS2_EEjj(ptr noundef nonnull align 8 dereferenceable(24) %0, i32 noundef %1, i32 noundef %2) #0 {
  %4 = alloca ptr, align 8
  %5 = alloca i32, align 4
  %6 = alloca i32, align 4
  %7 = alloca ptr, align 8
  %8 = alloca ptr, align 8
  %9 = alloca %"class.llvm::APInt", align 8
  %10 = alloca %"class.llvm::APInt", align 8
  store ptr %0, ptr %4, align 8
  store i32 %1, ptr %5, align 4
  store i32 %2, ptr %6, align 4
  %11 = load ptr, ptr %4, align 8
  %12 = load i32, ptr %5, align 4
  %13 = zext i32 %12 to i64
  %14 = call noundef nonnull align 8 dereferenceable(36) ptr @_ZNKSt6vectorIN4llvm8SwitchCG11CaseClusterESaIS2_EEixEm(ptr noundef nonnull align 8 dereferenceable(24) %11, i64 noundef %13) #10
  %15 = getelementptr inbounds nuw %"struct.llvm::SwitchCG::CaseCluster", ptr %14, i32 0, i32 2
  %16 = load ptr, ptr %15, align 8
  %17 = call noundef nonnull align 8 dereferenceable(12) ptr @_ZNK4llvm11ConstantInt8getValueEv(ptr noundef nonnull align 8 dereferenceable(40) %16)
  store ptr %17, ptr %7, align 8
  %18 = load ptr, ptr %4, align 8
  %19 = load i32, ptr %6, align 4
  %20 = zext i32 %19 to i64
  %21 = call noundef nonnull align 8 dereferenceable(36) ptr @_ZNKSt6vectorIN4llvm8SwitchCG11CaseClusterESaIS2_EEixEm(ptr noundef nonnull align 8 dereferenceable(24) %18, i64 noundef %20) #10
  %22 = getelementptr inbounds nuw %"struct.llvm::SwitchCG::CaseCluster", ptr %21, i32 0, i32 3
  %23 = load ptr, ptr %22, align 8
  %24 = call noundef nonnull align 8 dereferenceable(12) ptr @_ZNK4llvm11ConstantInt8getValueEv(ptr noundef nonnull align 8 dereferenceable(40) %23)
  store ptr %24, ptr %8, align 8
  %25 = load ptr, ptr %8, align 8
  call void @_ZN4llvm5APIntC2ERKS0_(ptr noundef nonnull align 8 dereferenceable(12) %10, ptr noundef nonnull align 8 dereferenceable(12) %25)
  %26 = load ptr, ptr %7, align 8
  call void @_ZN4llvmmiENS_5APIntERKS0_(ptr dead_on_unwind writable sret(%"class.llvm::APInt") align 8 %9, ptr noundef %10, ptr noundef nonnull align 8 dereferenceable(12) %26)
  %27 = call noundef i64 @_ZNK4llvm5APInt15getLimitedValueEm(ptr noundef nonnull align 8 dereferenceable(12) %9, i64 noundef 184467440737095516)
  %28 = add i64 %27, 1
  call void @_ZN4llvm5APIntD2Ev(ptr noundef nonnull align 8 dereferenceable(12) %9) #10
  call void @_ZN4llvm5APIntD2Ev(ptr noundef nonnull align 8 dereferenceable(12) %10) #10
  ret i64 %28
}