; Function Attrs: mustprogress nounwind uwtable
define dso_local noundef range(i64 1, 184467440737095518) i64 @_ZN4llvm8SwitchCG17getJumpTableRangeERKSt6vectorINS0_11CaseClusterESaIS2_EEjj(ptr nocapture noundef nonnull readonly align 8 dereferenceable(24) %0, i32 noundef %1, i32 noundef %2) local_unnamed_addr #0 {
  %4 = alloca %"class.llvm::APInt", align 8
  %5 = alloca %"class.llvm::APInt", align 8
  %6 = zext i32 %1 to i64
  %7 = load ptr, ptr %0, align 8
  %8 = getelementptr inbounds %"struct.llvm::SwitchCG::CaseCluster", ptr %7, i64 %6, i32 2
  %9 = load ptr, ptr %8, align 8
  %10 = getelementptr inbounds nuw i8, ptr %9, i64 24
  %11 = zext i32 %2 to i64
  %12 = getelementptr inbounds %"struct.llvm::SwitchCG::CaseCluster", ptr %7, i64 %11, i32 3
  %13 = load ptr, ptr %12, align 8
  %14 = getelementptr inbounds nuw i8, ptr %13, i64 24
  %15 = getelementptr inbounds nuw i8, ptr %5, i64 8
  %16 = getelementptr inbounds i8, ptr %13, i64 32
  %17 = load i32, ptr %16, align 8
  store i32 %17, ptr %15, align 8
  %18 = icmp ult i32 %17, 65
  br i1 %18, label %19, label %21

19:                                               ; preds = %3
  %20 = load i64, ptr %14, align 8
  store i64 %20, ptr %5, align 8
  br label %_ZN4llvm5APIntC2ERKS0_.exit

21:                                               ; preds = %3
  call void @_ZN4llvm5APInt12initSlowCaseERKS0_(ptr noundef nonnull align 8 dereferenceable(12) %5, ptr noundef nonnull align 8 dereferenceable(12) %14) #20
  br label %_ZN4llvm5APIntC2ERKS0_.exit

_ZN4llvm5APIntC2ERKS0_.exit:                      ; preds = %19, %21
  call void @llvm.experimental.noalias.scope.decl(metadata !4)
  %22 = call noundef nonnull align 8 dereferenceable(12) ptr @_ZN4llvm5APIntmIERKS0_(ptr noundef nonnull align 8 dereferenceable(12) %5, ptr noundef nonnull align 8 dereferenceable(12) %10) #20, !noalias !4
  %23 = getelementptr inbounds nuw i8, ptr %4, i64 8
  %24 = load i32, ptr %15, align 8, !noalias !4
  store i32 %24, ptr %23, align 8, !alias.scope !4
  %25 = load i64, ptr %5, align 8, !noalias !4
  store i64 %25, ptr %4, align 8, !alias.scope !4
  store i32 0, ptr %15, align 8, !noalias !4
  %26 = icmp ult i32 %24, 65
  %27 = inttoptr i64 %25 to ptr
  br i1 %26, label %_ZNK4llvm5APInt15getLimitedValueEm.exit, label %_ZNK4llvm5APInt13getActiveBitsEv.exit.i.i

_ZNK4llvm5APInt13getActiveBitsEv.exit.i.i:        ; preds = %_ZN4llvm5APIntC2ERKS0_.exit
  %28 = call noundef i32 @_ZNK4llvm5APInt25countLeadingZerosSlowCaseEv(ptr noundef nonnull align 8 dereferenceable(12) %4) #21
  %29 = sub i32 %24, %28
  %30 = icmp ugt i32 %29, 64
  br i1 %30, label %_ZNK4llvm5APInt15getLimitedValueEm.exit.thread, label %_ZNK4llvm5APInt15getLimitedValueEm.exit.thread6

_ZNK4llvm5APInt15getLimitedValueEm.exit.thread6:  ; preds = %_ZNK4llvm5APInt13getActiveBitsEv.exit.i.i
  %.0.i.i.i8 = load i64, ptr %27, align 8
  %spec.select.i9 = call i64 @llvm.umin.i64(i64 %.0.i.i.i8, i64 184467440737095516)
  %31 = add nuw nsw i64 %spec.select.i9, 1
  br label %_ZNK4llvm5APInt15getLimitedValueEm.exit.thread

_ZNK4llvm5APInt15getLimitedValueEm.exit:          ; preds = %_ZN4llvm5APIntC2ERKS0_.exit
  %.0.i.i.i = load i64, ptr %4, align 8
  %spec.select.i = call i64 @llvm.umin.i64(i64 %.0.i.i.i, i64 184467440737095516)
  %32 = add nuw nsw i64 %spec.select.i, 1
  br label %_ZN4llvm5APIntD2Ev.exit5

_ZNK4llvm5APInt15getLimitedValueEm.exit.thread:   ; preds = %_ZNK4llvm5APInt15getLimitedValueEm.exit.thread6, %_ZNK4llvm5APInt13getActiveBitsEv.exit.i.i
  %33 = phi i64 [ 184467440737095517, %_ZNK4llvm5APInt13getActiveBitsEv.exit.i.i ], [ %31, %_ZNK4llvm5APInt15getLimitedValueEm.exit.thread6 ]
  %34 = icmp eq i64 %25, 0
  br i1 %34, label %_ZN4llvm5APIntD2Ev.exit5, label %_ZN4llvm5APIntD2Ev.exit

_ZN4llvm5APIntD2Ev.exit:                          ; preds = %_ZNK4llvm5APInt15getLimitedValueEm.exit.thread
  call void @_ZdaPv(ptr noundef nonnull %27) #22
  %.pre = load i32, ptr %15, align 8
  %35 = icmp ugt i32 %.pre, 64
  br i1 %35, label %36, label %_ZN4llvm5APIntD2Ev.exit5

36:                                               ; preds = %_ZN4llvm5APIntD2Ev.exit
  %37 = load ptr, ptr %5, align 8
  %38 = icmp eq ptr %37, null
  br i1 %38, label %_ZN4llvm5APIntD2Ev.exit5, label %39

39:                                               ; preds = %36
  call void @_ZdaPv(ptr noundef nonnull %37) #22
  br label %_ZN4llvm5APIntD2Ev.exit5

_ZN4llvm5APIntD2Ev.exit5:                         ; preds = %_ZNK4llvm5APInt15getLimitedValueEm.exit.thread, %_ZNK4llvm5APInt15getLimitedValueEm.exit, %_ZN4llvm5APIntD2Ev.exit, %36, %39
  %40 = phi i64 [ %33, %_ZN4llvm5APIntD2Ev.exit ], [ %33, %36 ], [ %33, %39 ], [ %33, %_ZNK4llvm5APInt15getLimitedValueEm.exit.thread ], [ %32, %_ZNK4llvm5APInt15getLimitedValueEm.exit ]
  ret i64 %40
}